; Function Attrs: null_pointer_is_valid sspstrong uwtable
define internal i32 @dissect_ipa_tcp(ptr noundef %0, ptr noundef %1, ptr noundef %2, ptr readnone captures(none) %3) #0 {
  %5 = tail call fastcc zeroext i1 @dissect_ipa(ptr noundef %0, ptr noundef %1, ptr noundef %2, i1 noundef zeroext false)
  br i1 %5, label %6, label %8

6:                                                ; preds = %4
  %7 = tail call i32 @tvb_captured_length(ptr noundef %0)
  br label %8

8:                                                ; preds = %4, %6
  %.0 = phi i32 [ %7, %6 ], [ 0, %4 ]
  ret i32 %.0
}